target datalayout = "e-m:e-p270:32:32-p271:32:32-p272:64:64-i64:64-i128:128-f80:128-n8:16:32:64-S128"
target triple = "x86_64-pc-linux-gnu"

%struct.rb_data_type_struct = type { ptr, %struct.anon, ptr, ptr, i64 }
%struct.anon = type { ptr, ptr, ptr, ptr, [1 x ptr] }
%struct.RTypedData = type { %struct.RBasic, ptr, i64, ptr }
%struct.RBasic = type { i64, i64 }

@ossl_bn_type = internal constant %struct.rb_data_type_struct { ptr @.str.62, %struct.anon { ptr null, ptr @ossl_bn_free, ptr null, ptr null, [1 x ptr] zeroinitializer }, ptr null, ptr null, i64 289 }, align 8
@eBNError = internal global i64 0, align 8
@rb_eRuntimeError = external global i64, align 8
@.str = private unnamed_addr constant [23 x i8] c"BN wasn't initialized!\00", align 1
@ossl_bn_ctx_key = internal global ptr null, align 8
@.str.2 = private unnamed_addr constant [19 x i8] c"Cannot init BN_CTX\00", align 1

; Function Attrs: nounwind sspstrong uwtable
define ptr @ossl_bn_ctx_get() #0 {
  %1 = alloca ptr, align 8
  call void @llvm.lifetime.start.p0(i64 8, ptr %1) #20
  %2 = load ptr, ptr @ossl_bn_ctx_key, align 8, !tbaa !19
  %3 = call ptr @rb_ractor_local_storage_ptr(ptr noundef %2)
  store ptr %3, ptr %1, align 8, !tbaa !21
  %4 = load ptr, ptr %1, align 8, !tbaa !21
  %5 = icmp ne ptr %4, null
  br i1 %5, label %14, label %6

6:                                                ; preds = %0
  %7 = call ptr @BN_CTX_new()
  store ptr %7, ptr %1, align 8, !tbaa !21
  %8 = icmp ne ptr %7, null
  br i1 %8, label %11, label %9

9:                                                ; preds = %6
  %10 = load i64, ptr @rb_eRuntimeError, align 8, !tbaa !11
  call void (i64, ptr, ...) @ossl_raise(i64 noundef %10, ptr noundef @.str.2) #21
  unreachable

11:                                               ; preds = %6
  %12 = load ptr, ptr @ossl_bn_ctx_key, align 8, !tbaa !19
  %13 = load ptr, ptr %1, align 8, !tbaa !21
  call void @rb_ractor_local_storage_ptr_set(ptr noundef %12, ptr noundef %13)
  br label %14

14:                                               ; preds = %11, %0
  %15 = load ptr, ptr %1, align 8, !tbaa !21
  call void @llvm.lifetime.end.p0(i64 8, ptr %1) #20
  ret ptr %15
}

; Function Attrs: nounwind sspstrong uwtable
define internal i64 @ossl_bn_div(i64 noundef %0, i64 noundef %1) #0 {
  %3 = alloca i64, align 8
  %4 = alloca i64, align 8
  %5 = alloca ptr, align 8
  %6 = alloca ptr, align 8
  %7 = alloca ptr, align 8
  %8 = alloca ptr, align 8
  %9 = alloca i64, align 8
  %10 = alloca i64, align 8
  %11 = alloca i64, align 8
  store i64 %0, ptr %3, align 8, !tbaa !11
  store i64 %1, ptr %4, align 8, !tbaa !11
  call void @llvm.lifetime.start.p0(i64 8, ptr %5) #20
  call void @llvm.lifetime.start.p0(i64 8, ptr %6) #20
  %12 = call ptr @ossl_bn_value_ptr(ptr noundef %4)
  store ptr %12, ptr %6, align 8, !tbaa !6
  call void @llvm.lifetime.start.p0(i64 8, ptr %7) #20
  call void @llvm.lifetime.start.p0(i64 8, ptr %8) #20
  call void @llvm.lifetime.start.p0(i64 8, ptr %9) #20
  call void @llvm.lifetime.start.p0(i64 8, ptr %10) #20
  call void @llvm.lifetime.start.p0(i64 8, ptr %11) #20
  br label %13

13:                                               ; preds = %2
  %14 = load i64, ptr %3, align 8, !tbaa !11
  %15 = call ptr @rb_check_typeddata(i64 noundef %14, ptr noundef @ossl_bn_type)
  store ptr %15, ptr %5, align 8, !tbaa !6
  %16 = load ptr, ptr %5, align 8, !tbaa !6
  %17 = icmp ne ptr %16, null
  br i1 %17, label %20, label %18

18:                                               ; preds = %13
  %19 = load i64, ptr @rb_eRuntimeError, align 8, !tbaa !11
  call void (i64, ptr, ...) @ossl_raise(i64 noundef %19, ptr noundef @.str) #21
  unreachable

20:                                               ; preds = %13
  br label %21

21:                                               ; preds = %20
  br label %22

22:                                               ; preds = %21
  %23 = load i64, ptr %3, align 8, !tbaa !11
  %24 = call i64 @rb_obj_class(i64 noundef %23)
  store i64 %24, ptr %9, align 8, !tbaa !11
  %25 = load i64, ptr %9, align 8, !tbaa !11
  %26 = call i64 @rb_data_typed_object_wrap(i64 noundef %25, ptr noundef null, ptr noundef @ossl_bn_type)
  store i64 %26, ptr %10, align 8, !tbaa !11
  %27 = load i64, ptr %9, align 8, !tbaa !11
  %28 = call i64 @rb_data_typed_object_wrap(i64 noundef %27, ptr noundef null, ptr noundef @ossl_bn_type)
  store i64 %28, ptr %11, align 8, !tbaa !11
  %29 = call ptr @BN_new()
  store ptr %29, ptr %7, align 8, !tbaa !6
  %30 = icmp ne ptr %29, null
  br i1 %30, label %33, label %31

31:                                               ; preds = %22
  %32 = load i64, ptr @eBNError, align 8, !tbaa !11
  call void (i64, ptr, ...) @ossl_raise(i64 noundef %32, ptr noundef null) #21
  unreachable

33:                                               ; preds = %22
  %34 = call ptr @BN_new()
  store ptr %34, ptr %8, align 8, !tbaa !6
  %35 = icmp ne ptr %34, null
  br i1 %35, label %39, label %36

36:                                               ; preds = %33
  %37 = load ptr, ptr %7, align 8, !tbaa !6
  call void @BN_free(ptr noundef %37)
  %38 = load i64, ptr @eBNError, align 8, !tbaa !11
  call void (i64, ptr, ...) @ossl_raise(i64 noundef %38, ptr noundef null) #21
  unreachable

39:                                               ; preds = %33
  %40 = load ptr, ptr %7, align 8, !tbaa !6
  %41 = load ptr, ptr %8, align 8, !tbaa !6
  %42 = load ptr, ptr %5, align 8, !tbaa !6
  %43 = load ptr, ptr %6, align 8, !tbaa !6
  %44 = call ptr @ossl_bn_ctx_get()
  %45 = call i32 @BN_div(ptr noundef %40, ptr noundef %41, ptr noundef %42, ptr noundef %43, ptr noundef %44)
  %46 = icmp ne i32 %45, 0
  br i1 %46, label %51, label %47

47:                                               ; preds = %39
  %48 = load ptr, ptr %7, align 8, !tbaa !6
  call void @BN_free(ptr noundef %48)
  %49 = load ptr, ptr %8, align 8, !tbaa !6
  call void @BN_free(ptr noundef %49)
  %50 = load i64, ptr @eBNError, align 8, !tbaa !11
  call void (i64, ptr, ...) @ossl_raise(i64 noundef %50, ptr noundef null) #21
  unreachable

51:                                               ; preds = %39
  br label %52

52:                                               ; preds = %51
  %53 = load ptr, ptr %7, align 8, !tbaa !6
  %54 = icmp ne ptr %53, null
  br i1 %54, label %57, label %55

55:                                               ; preds = %52
  %56 = load i64, ptr @rb_eRuntimeError, align 8, !tbaa !11
  call void (i64, ptr, ...) @ossl_raise(i64 noundef %56, ptr noundef @.str) #21
  unreachable

57:                                               ; preds = %52
  %58 = load ptr, ptr %7, align 8, !tbaa !6
  %59 = load i64, ptr %10, align 8, !tbaa !11
  %60 = inttoptr i64 %59 to ptr
  %61 = getelementptr inbounds nuw %struct.RTypedData, ptr %60, i32 0, i32 3
  store ptr %58, ptr %61, align 8, !tbaa !13
  br label %62

62:                                               ; preds = %57
  br label %63

63:                                               ; preds = %62
  br label %64

64:                                               ; preds = %63
  %65 = load ptr, ptr %8, align 8, !tbaa !6
  %66 = icmp ne ptr %65, null
  br i1 %66, label %69, label %67

67:                                               ; preds = %64
  %68 = load i64, ptr @rb_eRuntimeError, align 8, !tbaa !11
  call void (i64, ptr, ...) @ossl_raise(i64 noundef %68, ptr noundef @.str) #21
  unreachable

69:                                               ; preds = %64
  %70 = load ptr, ptr %8, align 8, !tbaa !6
  %71 = load i64, ptr %11, align 8, !tbaa !11
  %72 = inttoptr i64 %71 to ptr
  %73 = getelementptr inbounds nuw %struct.RTypedData, ptr %72, i32 0, i32 3
  store ptr %70, ptr %73, align 8, !tbaa !13
  br label %74

74:                                               ; preds = %69
  br label %75

75:                                               ; preds = %74
  %76 = load i64, ptr %10, align 8, !tbaa !11
  %77 = load i64, ptr %11, align 8, !tbaa !11
  %78 = call i64 (i64, ...) @rb_ary_new_from_args(i64 noundef 2, i64 noundef %76, i64 noundef %77)
  call void @llvm.lifetime.end.p0(i64 8, ptr %11) #20
  call void @llvm.lifetime.end.p0(i64 8, ptr %10) #20
  call void @llvm.lifetime.end.p0(i64 8, ptr %9) #20
  call void @llvm.lifetime.end.p0(i64 8, ptr %8) #20
  call void @llvm.lifetime.end.p0(i64 8, ptr %7) #20
  call void @llvm.lifetime.end.p0(i64 8, ptr %6) #20
  call void @llvm.lifetime.end.p0(i64 8, ptr %5) #20
  ret i64 %78
}