; Function Attrs: nounwind sspstrong uwtable
define internal i64 @ossl_bn_div(i64 noundef %0, i64 noundef %1) #0 {
  %3 = alloca i64, align 8
  store i64 %1, ptr %3, align 8, !tbaa !6
  %4 = call ptr @ossl_bn_value_ptr(ptr noundef nonnull %3)
  %5 = call ptr @rb_check_typeddata(i64 noundef %0, ptr noundef nonnull @ossl_bn_type) #11
  %.not = icmp eq ptr %5, null
  br i1 %.not, label %6, label %8

6:                                                ; preds = %2
  %7 = load i64, ptr @rb_eRuntimeError, align 8, !tbaa !6
  call void (i64, ptr, ...) @ossl_raise(i64 noundef %7, ptr noundef nonnull @.str) #12
  unreachable

8:                                                ; preds = %2
  %9 = call i64 @rb_obj_class(i64 noundef %0) #11
  %10 = call i64 @rb_data_typed_object_wrap(i64 noundef %9, ptr noundef null, ptr noundef nonnull @ossl_bn_type) #11
  %11 = call i64 @rb_data_typed_object_wrap(i64 noundef %9, ptr noundef null, ptr noundef nonnull @ossl_bn_type) #11
  %12 = call ptr @BN_new() #11
  %.not21 = icmp eq ptr %12, null
  br i1 %.not21, label %13, label %15

13:                                               ; preds = %8
  %14 = load i64, ptr @eBNError, align 8, !tbaa !6
  call void (i64, ptr, ...) @ossl_raise(i64 noundef %14, ptr noundef null) #12
  unreachable

15:                                               ; preds = %8
  %16 = call ptr @BN_new() #11
  %.not22 = icmp eq ptr %16, null
  br i1 %.not22, label %17, label %19

17:                                               ; preds = %15
  call void @BN_free(ptr noundef nonnull %12) #11
  %18 = load i64, ptr @eBNError, align 8, !tbaa !6
  call void (i64, ptr, ...) @ossl_raise(i64 noundef %18, ptr noundef null) #12
  unreachable

19:                                               ; preds = %15
  %20 = load ptr, ptr @ossl_bn_ctx_key, align 8, !tbaa !16
  %21 = call ptr @rb_ractor_local_storage_ptr(ptr noundef %20) #11
  %.not.i = icmp eq ptr %21, null
  br i1 %.not.i, label %22, label %ossl_bn_ctx_get.exit

22:                                               ; preds = %19
  %23 = call ptr @BN_CTX_new() #11
  %.not5.i = icmp eq ptr %23, null
  br i1 %.not5.i, label %24, label %26

24:                                               ; preds = %22
  %25 = load i64, ptr @rb_eRuntimeError, align 8, !tbaa !6
  call void (i64, ptr, ...) @ossl_raise(i64 noundef %25, ptr noundef nonnull @.str.2) #12
  unreachable

26:                                               ; preds = %22
  %27 = load ptr, ptr @ossl_bn_ctx_key, align 8, !tbaa !16
  call void @rb_ractor_local_storage_ptr_set(ptr noundef %27, ptr noundef nonnull %23) #11
  br label %ossl_bn_ctx_get.exit

ossl_bn_ctx_get.exit:                             ; preds = %19, %26
  %.0.i = phi ptr [ %21, %19 ], [ %23, %26 ]
  %28 = call i32 @BN_div(ptr noundef nonnull %12, ptr noundef nonnull %16, ptr noundef nonnull %5, ptr noundef nonnull %4, ptr noundef nonnull %.0.i) #11
  %.not23 = icmp eq i32 %28, 0
  br i1 %.not23, label %29, label %31

29:                                               ; preds = %ossl_bn_ctx_get.exit
  call void @BN_free(ptr noundef nonnull %12) #11
  call void @BN_free(ptr noundef nonnull %16) #11
  %30 = load i64, ptr @eBNError, align 8, !tbaa !6
  call void (i64, ptr, ...) @ossl_raise(i64 noundef %30, ptr noundef null) #12
  unreachable

31:                                               ; preds = %ossl_bn_ctx_get.exit
  %32 = inttoptr i64 %10 to ptr
  %33 = getelementptr inbounds nuw i8, ptr %32, i64 32
  store ptr %12, ptr %33, align 8, !tbaa !10
  %34 = inttoptr i64 %11 to ptr
  %35 = getelementptr inbounds nuw i8, ptr %34, i64 32
  store ptr %16, ptr %35, align 8, !tbaa !10
  %36 = call i64 (i64, ...) @rb_ary_new_from_args(i64 noundef 2, i64 noundef %10, i64 noundef %11) #11
  ret i64 %36
}